.file "sum.s"

.section	.rodata.str1.1,"aMS",@progbits,1
PR_1:
	.string "\nSize of the array: %i\n"
.data
.align 8
array:
	.quad 0
	.quad 0
	.quad 0
	.quad 0
	.quad 0
	.quad 0
	.quad 0
	.quad 0
	.quad 0
	.quad 0

.globl sum
	.type	sum, @function
.text
.LC0:
	.string	"\n%li"
.LC1:
	.string	"\nThe sum is: %li\n"
	.text
	.globl	sum
	.type	sum, @function
sum:
.LFB23:
	.cfi_startproc
	endbr64
	pushq	%r14
	.cfi_def_cfa_offset 16
	.cfi_offset 14, -16
	pushq	%r13
	.cfi_def_cfa_offset 24
	.cfi_offset 13, -24
	pushq	%r12
	.cfi_def_cfa_offset 32
	.cfi_offset 12, -32
	pushq	%rbp
	.cfi_def_cfa_offset 40
	.cfi_offset 6, -40
	pushq	%rbx
	.cfi_def_cfa_offset 48
	.cfi_offset 3, -48
	movq	%rdi, %r14
	movl	%esi, %r13d
	movl	$0, %ebx
	movl	$0, %r12d
	jmp	.L2
.L3:
	movslq	%ebx, %rax
	leaq	(%r14,%rax,8), %rbp
	movq	0(%rbp), %rdx
	leaq	.LC0(%rip), %rsi
	movl	$1, %edi
	movl	$0, %eax
	call	__printf_chk@PLT
	addq	0(%rbp), %r12
	addl	$1, %ebx
.L2:
	cmpl	%r13d, %ebx
	jl	.L3
	movq	%r12, %rdx
	leaq	.LC1(%rip), %rsi
	movl	$1, %edi
	movl	$0, %eax
	call	__printf_chk@PLT
	movq	%r12, %rax
	popq	%rbx
	.cfi_def_cfa_offset 40
	popq	%rbp
	.cfi_def_cfa_offset 32
	popq	%r12
	.cfi_def_cfa_offset 24
	popq	%r13
	.cfi_def_cfa_offset 16
	popq	%r14
	.cfi_def_cfa_offset 8
	ret
	.cfi_endproc
.LFE23:
	.size	sum, .-sum
	.ident	"GCC: (Ubuntu 11.4.0-1ubuntu1~22.04) 11.4.0"
	.section	.note.GNU-stack,"",@progbits
	.section	.note.gnu.property,"a"
	.align 8
	.long	1f - 0f
	.long	4f - 1f
	.long	5
0:
	.string	"GNU"
1:
	.align 8
	.long	0xc0000002
	.long	3f - 2f
2:
	.long	0x3
3:
	.align 8
4:
